; Function Attrs: mustprogress nofree norecurse nosync nounwind willreturn memory(argmem: read) uwtable
define internal i32 @sort_gp_desc(ptr nocapture noundef readonly %a, ptr nocapture noundef readonly %b) #7 {
entry:
  %dist.i = getelementptr inbounds i8, ptr %a, i64 16
  %0 = load double, ptr %dist.i, align 8
  %dist1.i = getelementptr inbounds i8, ptr %b, i64 16
  %1 = load double, ptr %dist1.i, align 8
  %cmp.i = fcmp ogt double %0, %1
  %cmp4.i = fcmp une double %0, %1
  %..i.neg = zext i1 %cmp4.i to i32
  %retval.0.i.neg = select i1 %cmp.i, i32 -1, i32 %..i.neg
  ret i32 %retval.0.i.neg
}